target datalayout = "e-m:e-p270:32:32-p271:32:32-p272:64:64-i64:64-i128:128-f80:128-n8:16:32:64-S128"
target triple = "x86_64-pc-linux-gnu"

%struct.H5FS_t = type { %struct.H5C_cache_entry_t, i64, i64, i64, i64, i32, i16, i32, i32, i32, i64, i64, i64, i64, i32, i64, i64, ptr, i8, i32, i8, i8, i32, i64, i64, i64, ptr }
%struct.H5C_cache_entry_t = type { ptr, i64, i64, ptr, i8, ptr, i8, i8, i8, i8, i32, i8, i8, i8, i8, i8, i32, ptr, i32, i32, i32, i32, i32, i8, i8, ptr, ptr, ptr, ptr, ptr, ptr, i8, i32, i8, i64, ptr, i64, i64, i32, i8, i32, i32, i8, ptr, ptr, ptr }
%struct.H5FS_sinfo_t = type { %struct.H5C_cache_entry_t, ptr, i8, i32, i64, i64, i64, i64, i32, i32, i32, ptr, ptr }
%struct.H5FS_section_info_t = type { i64, i64, i32, i32 }
%struct.H5FS_section_class_t = type { i32, i64, i32, ptr, ptr, ptr, ptr, ptr, ptr, ptr, ptr, ptr, ptr, ptr, ptr, ptr, ptr }

@.str.3 = private unnamed_addr constant [105 x i8] c"generated/home/dtcxzyw/WorkSpace/Projects/compilers/llvm-opt-benchmark/bench/hdf5/hdf5/src/H5FSsection.c\00", align 1
@H5E_FSPACE_g = external global i64, align 8
@H5E_CANTINSERT_g = external global i64, align 8
@H5E_NOTFOUND_g = external global i64, align 8
@.str.19 = private unnamed_addr constant [37 x i8] c"can't find section node on size list\00", align 1
@H5E_CANTCOMPUTE_g = external global i64, align 8
@.str.20 = private unnamed_addr constant [45 x i8] c"can't adjust free space section size on disk\00", align 1
@__func__.H5FS__sect_unlink_rest = private unnamed_addr constant [23 x i8] c"H5FS__sect_unlink_rest\00", align 1
@.str.42 = private unnamed_addr constant [47 x i8] c"can't increase free space section size on disk\00", align 1
@__func__.H5FS__sect_decrease = private unnamed_addr constant [20 x i8] c"H5FS__sect_decrease\00", align 1

; Function Attrs: nounwind uwtable
define internal i32 @H5FS__sect_decrease(ptr noundef %0, ptr noundef %1) #0 {
  %3 = alloca ptr, align 8
  %4 = alloca ptr, align 8
  %5 = alloca i32, align 4
  %6 = alloca i8, align 1
  store ptr %0, ptr %3, align 8
  store ptr %1, ptr %4, align 8
  store i32 0, ptr %5, align 4
  store i8 0, ptr %6, align 1
  %7 = load ptr, ptr %3, align 8
  %8 = getelementptr inbounds %struct.H5FS_t, ptr %7, i32 0, i32 2
  %9 = load i64, ptr %8, align 8
  %10 = add i64 %9, -1
  store i64 %10, ptr %8, align 8
  %11 = load ptr, ptr %4, align 8
  %12 = getelementptr inbounds %struct.H5FS_section_class_t, ptr %11, i32 0, i32 2
  %13 = load i32, ptr %12, align 8
  %14 = and i32 %13, 1
  %15 = icmp ne i32 %14, 0
  br i1 %15, label %16, label %21

16:                                               ; preds = %2
  %17 = load ptr, ptr %3, align 8
  %18 = getelementptr inbounds %struct.H5FS_t, ptr %17, i32 0, i32 4
  %19 = load i64, ptr %18, align 8
  %20 = add i64 %19, -1
  store i64 %20, ptr %18, align 8
  br label %54

21:                                               ; preds = %2
  %22 = load ptr, ptr %3, align 8
  %23 = getelementptr inbounds %struct.H5FS_t, ptr %22, i32 0, i32 3
  %24 = load i64, ptr %23, align 8
  %25 = add i64 %24, -1
  store i64 %25, ptr %23, align 8
  %26 = load ptr, ptr %4, align 8
  %27 = getelementptr inbounds %struct.H5FS_section_class_t, ptr %26, i32 0, i32 1
  %28 = load i64, ptr %27, align 8
  %29 = load ptr, ptr %3, align 8
  %30 = getelementptr inbounds %struct.H5FS_t, ptr %29, i32 0, i32 17
  %31 = load ptr, ptr %30, align 8
  %32 = getelementptr inbounds %struct.H5FS_sinfo_t, ptr %31, i32 0, i32 4
  %33 = load i64, ptr %32, align 8
  %34 = sub i64 %33, %28
  store i64 %34, ptr %32, align 8
  %35 = load ptr, ptr %3, align 8
  %36 = call i32 @H5FS__sect_serialize_size(ptr noundef %35)
  %37 = icmp slt i32 %36, 0
  br i1 %37, label %38, label %53

38:                                               ; preds = %21
  br label %39

39:                                               ; preds = %38
  br label %40

40:                                               ; preds = %39
  br label %41

41:                                               ; preds = %40
  %42 = load i64, ptr @H5E_FSPACE_g, align 8
  %43 = load i64, ptr @H5E_CANTCOMPUTE_g, align 8
  %44 = call i32 (ptr, ptr, i32, i64, i64, ptr, ...) @H5E_printf_stack(ptr noundef @.str.3, ptr noundef @__func__.H5FS__sect_decrease, i32 noundef 648, i64 noundef %42, i64 noundef %43, ptr noundef @.str.20)
  br label %45

45:                                               ; preds = %41
  store i8 1, ptr %6, align 1
  %46 = load i8, ptr %6, align 1
  %47 = trunc i8 %46 to i1
  %48 = zext i1 %47 to i8
  store i8 %48, ptr %6, align 1
  br label %49

49:                                               ; preds = %45
  br label %50

50:                                               ; preds = %49
  store i32 -1, ptr %5, align 4
  br label %55

51:                                               ; No predecessors!
  br label %52

52:                                               ; preds = %51
  br label %53

53:                                               ; preds = %52, %21
  br label %54

54:                                               ; preds = %53, %16
  br label %55

55:                                               ; preds = %54, %50
  %56 = load i32, ptr %5, align 4
  ret i32 %56
}

; Function Attrs: nounwind uwtable
define internal i32 @H5FS__sect_unlink_rest(ptr noundef %0, ptr noundef %1, ptr noundef %2) #0 {
  %4 = alloca ptr, align 8
  %5 = alloca ptr, align 8
  %6 = alloca ptr, align 8
  %7 = alloca i32, align 4
  %8 = alloca i8, align 1
  %9 = alloca ptr, align 8
  store ptr %0, ptr %4, align 8
  store ptr %1, ptr %5, align 8
  store ptr %2, ptr %6, align 8
  store i32 0, ptr %7, align 4
  store i8 0, ptr %8, align 1
  %10 = load ptr, ptr %5, align 8
  %11 = getelementptr inbounds %struct.H5FS_section_class_t, ptr %10, i32 0, i32 2
  %12 = load i32, ptr %11, align 8
  %13 = and i32 %12, 2
  %14 = icmp ne i32 %13, 0
  br i1 %14, label %46, label %15

15:                                               ; preds = %3
  %16 = load ptr, ptr %4, align 8
  %17 = getelementptr inbounds %struct.H5FS_t, ptr %16, i32 0, i32 17
  %18 = load ptr, ptr %17, align 8
  %19 = getelementptr inbounds %struct.H5FS_sinfo_t, ptr %18, i32 0, i32 12
  %20 = load ptr, ptr %19, align 8
  %21 = load ptr, ptr %6, align 8
  %22 = getelementptr inbounds %struct.H5FS_section_info_t, ptr %21, i32 0, i32 0
  %23 = call ptr @H5SL_remove(ptr noundef %20, ptr noundef %22)
  store ptr %23, ptr %9, align 8
  %24 = load ptr, ptr %9, align 8
  %25 = icmp eq ptr %24, null
  br i1 %25, label %30, label %26

26:                                               ; preds = %15
  %27 = load ptr, ptr %9, align 8
  %28 = load ptr, ptr %6, align 8
  %29 = icmp ne ptr %27, %28
  br i1 %29, label %30, label %45

30:                                               ; preds = %26, %15
  br label %31

31:                                               ; preds = %30
  br label %32

32:                                               ; preds = %31
  br label %33

33:                                               ; preds = %32
  %34 = load i64, ptr @H5E_FSPACE_g, align 8
  %35 = load i64, ptr @H5E_NOTFOUND_g, align 8
  %36 = call i32 (ptr, ptr, i32, i64, i64, ptr, ...) @H5E_printf_stack(ptr noundef @.str.3, ptr noundef @__func__.H5FS__sect_unlink_rest, i32 noundef 815, i64 noundef %34, i64 noundef %35, ptr noundef @.str.19)
  br label %37

37:                                               ; preds = %33
  store i8 1, ptr %8, align 1
  %38 = load i8, ptr %8, align 1
  %39 = trunc i8 %38 to i1
  %40 = zext i1 %39 to i8
  store i8 %40, ptr %8, align 1
  br label %41

41:                                               ; preds = %37
  br label %42

42:                                               ; preds = %41
  store i32 -1, ptr %7, align 4
  br label %74

43:                                               ; No predecessors!
  br label %44

44:                                               ; preds = %43
  br label %45

45:                                               ; preds = %44, %26
  br label %46

46:                                               ; preds = %45, %3
  %47 = load ptr, ptr %4, align 8
  %48 = load ptr, ptr %5, align 8
  %49 = call i32 @H5FS__sect_decrease(ptr noundef %47, ptr noundef %48)
  %50 = icmp slt i32 %49, 0
  br i1 %50, label %51, label %66

51:                                               ; preds = %46
  br label %52

52:                                               ; preds = %51
  br label %53

53:                                               ; preds = %52
  br label %54

54:                                               ; preds = %53
  %55 = load i64, ptr @H5E_FSPACE_g, align 8
  %56 = load i64, ptr @H5E_CANTINSERT_g, align 8
  %57 = call i32 (ptr, ptr, i32, i64, i64, ptr, ...) @H5E_printf_stack(ptr noundef @.str.3, ptr noundef @__func__.H5FS__sect_unlink_rest, i32 noundef 820, i64 noundef %55, i64 noundef %56, ptr noundef @.str.42)
  br label %58

58:                                               ; preds = %54
  store i8 1, ptr %8, align 1
  %59 = load i8, ptr %8, align 1
  %60 = trunc i8 %59 to i1
  %61 = zext i1 %60 to i8
  store i8 %61, ptr %8, align 1
  br label %62

62:                                               ; preds = %58
  br label %63

63:                                               ; preds = %62
  store i32 -1, ptr %7, align 4
  br label %74

64:                                               ; No predecessors!
  br label %65

65:                                               ; preds = %64
  br label %66

66:                                               ; preds = %65, %46
  %67 = load ptr, ptr %6, align 8
  %68 = getelementptr inbounds %struct.H5FS_section_info_t, ptr %67, i32 0, i32 1
  %69 = load i64, ptr %68, align 8
  %70 = load ptr, ptr %4, align 8
  %71 = getelementptr inbounds %struct.H5FS_t, ptr %70, i32 0, i32 1
  %72 = load i64, ptr %71, align 8
  %73 = sub i64 %72, %69
  store i64 %73, ptr %71, align 8
  br label %74

74:                                               ; preds = %66, %63, %42
  %75 = load i32, ptr %7, align 4
  ret i32 %75
}