; Function Attrs: nounwind uwtable
define internal fastcc range(i32 -1, 1) i32 @H5FS__sect_unlink_rest(ptr nocapture noundef %0, ptr nocapture noundef readonly %1, ptr noundef %2) unnamed_addr #0 {
  %4 = getelementptr inbounds i8, ptr %1, i64 16
  %5 = load i32, ptr %4, align 8
  %6 = and i32 %5, 2
  %.not = icmp eq i32 %6, 0
  br i1 %.not, label %7, label %18

7:                                                ; preds = %3
  %8 = getelementptr inbounds i8, ptr %0, i64 360
  %9 = load ptr, ptr %8, align 8
  %10 = getelementptr inbounds i8, ptr %9, i64 320
  %11 = load ptr, ptr %10, align 8
  %12 = tail call ptr @H5SL_remove(ptr noundef %11, ptr noundef %2) #6
  %13 = icmp ne ptr %12, null
  %.not13 = icmp eq ptr %12, %2
  %or.cond = and i1 %13, %.not13
  br i1 %or.cond, label %18, label %14

14:                                               ; preds = %7
  %15 = load i64, ptr @H5E_FSPACE_g, align 8
  %16 = load i64, ptr @H5E_NOTFOUND_g, align 8
  %17 = tail call i32 (ptr, ptr, i32, i64, i64, ptr, ...) @H5E_printf_stack(ptr noundef nonnull @.str.3, ptr noundef nonnull @__func__.H5FS__sect_unlink_rest, i32 noundef 815, i64 noundef %15, i64 noundef %16, ptr noundef nonnull @.str.19) #6
  br label %44

18:                                               ; preds = %7, %3
  %19 = getelementptr inbounds i8, ptr %0, i64 256
  %20 = load i64, ptr %19, align 8
  %21 = add i64 %20, -1
  store i64 %21, ptr %19, align 8
  %22 = load i32, ptr %4, align 8
  %23 = and i32 %22, 1
  %.not.i = icmp eq i32 %23, 0
  br i1 %.not.i, label %28, label %24

24:                                               ; preds = %18
  %25 = getelementptr inbounds i8, ptr %0, i64 272
  %26 = load i64, ptr %25, align 8
  %27 = add i64 %26, -1
  store i64 %27, ptr %25, align 8
  br label %H5FS__sect_decrease.exit

28:                                               ; preds = %18
  %29 = getelementptr inbounds i8, ptr %0, i64 264
  %30 = load i64, ptr %29, align 8
  %31 = add i64 %30, -1
  store i64 %31, ptr %29, align 8
  %32 = getelementptr inbounds i8, ptr %1, i64 8
  %33 = load i64, ptr %32, align 8
  %34 = getelementptr inbounds i8, ptr %0, i64 360
  %35 = load ptr, ptr %34, align 8
  %36 = getelementptr inbounds i8, ptr %35, i64 264
  %37 = load i64, ptr %36, align 8
  %38 = sub i64 %37, %33
  store i64 %38, ptr %36, align 8
  tail call fastcc void @H5FS__sect_serialize_size(ptr noundef nonnull %0)
  br label %H5FS__sect_decrease.exit

H5FS__sect_decrease.exit:                         ; preds = %24, %28
  %39 = getelementptr inbounds i8, ptr %2, i64 8
  %40 = load i64, ptr %39, align 8
  %41 = getelementptr inbounds i8, ptr %0, i64 248
  %42 = load i64, ptr %41, align 8
  %43 = sub i64 %42, %40
  store i64 %43, ptr %41, align 8
  br label %44

44:                                               ; preds = %H5FS__sect_decrease.exit, %14
  %.0 = phi i32 [ 0, %H5FS__sect_decrease.exit ], [ -1, %14 ]
  ret i32 %.0
}